
Microweek2.elf:     file format elf32-avr

Sections:
Idx Name          Size      VMA       LMA       File off  Algn
  0 .data         00000010  00800100  00000216  000002aa  2**0
                  CONTENTS, ALLOC, LOAD, DATA
  1 .text         00000216  00000000  00000000  00000094  2**1
                  CONTENTS, ALLOC, LOAD, READONLY, CODE
  2 .bss          00000002  00800110  00800110  000002ba  2**0
                  ALLOC
  3 .comment      00000030  00000000  00000000  000002ba  2**0
                  CONTENTS, READONLY
  4 .note.gnu.avr.deviceinfo 0000003c  00000000  00000000  000002ec  2**2
                  CONTENTS, READONLY
  5 .debug_aranges 00000040  00000000  00000000  00000328  2**0
                  CONTENTS, READONLY, DEBUGGING
  6 .debug_info   000009d6  00000000  00000000  00000368  2**0
                  CONTENTS, READONLY, DEBUGGING
  7 .debug_abbrev 0000089f  00000000  00000000  00000d3e  2**0
                  CONTENTS, READONLY, DEBUGGING
  8 .debug_line   0000034a  00000000  00000000  000015dd  2**0
                  CONTENTS, READONLY, DEBUGGING
  9 .debug_frame  00000108  00000000  00000000  00001928  2**2
                  CONTENTS, READONLY, DEBUGGING
 10 .debug_str    00000450  00000000  00000000  00001a30  2**0
                  CONTENTS, READONLY, DEBUGGING
 11 .debug_loc    00000297  00000000  00000000  00001e80  2**0
                  CONTENTS, READONLY, DEBUGGING
 12 .debug_ranges 00000030  00000000  00000000  00002117  2**0
                  CONTENTS, READONLY, DEBUGGING

Disassembly of section .text:

00000000 <__vectors>:
   0:	45 c0       	rjmp	.+138    	; 0x8c <__ctors_end>
   2:	00 00       	nop
   4:	72 c0       	rjmp	.+228    	; 0xea <__vector_1>
   6:	00 00       	nop
   8:	b4 c0       	rjmp	.+360    	; 0x172 <__vector_2>
   a:	00 00       	nop
   c:	5c c0       	rjmp	.+184    	; 0xc6 <__bad_interrupt>
   e:	00 00       	nop
  10:	5a c0       	rjmp	.+180    	; 0xc6 <__bad_interrupt>
  12:	00 00       	nop
  14:	58 c0       	rjmp	.+176    	; 0xc6 <__bad_interrupt>
  16:	00 00       	nop
  18:	56 c0       	rjmp	.+172    	; 0xc6 <__bad_interrupt>
  1a:	00 00       	nop
  1c:	54 c0       	rjmp	.+168    	; 0xc6 <__bad_interrupt>
  1e:	00 00       	nop
  20:	52 c0       	rjmp	.+164    	; 0xc6 <__bad_interrupt>
  22:	00 00       	nop
  24:	50 c0       	rjmp	.+160    	; 0xc6 <__bad_interrupt>
  26:	00 00       	nop
  28:	4e c0       	rjmp	.+156    	; 0xc6 <__bad_interrupt>
  2a:	00 00       	nop
  2c:	4c c0       	rjmp	.+152    	; 0xc6 <__bad_interrupt>
  2e:	00 00       	nop
  30:	4a c0       	rjmp	.+148    	; 0xc6 <__bad_interrupt>
  32:	00 00       	nop
  34:	48 c0       	rjmp	.+144    	; 0xc6 <__bad_interrupt>
  36:	00 00       	nop
  38:	46 c0       	rjmp	.+140    	; 0xc6 <__bad_interrupt>
  3a:	00 00       	nop
  3c:	44 c0       	rjmp	.+136    	; 0xc6 <__bad_interrupt>
  3e:	00 00       	nop
  40:	42 c0       	rjmp	.+132    	; 0xc6 <__bad_interrupt>
  42:	00 00       	nop
  44:	40 c0       	rjmp	.+128    	; 0xc6 <__bad_interrupt>
  46:	00 00       	nop
  48:	3e c0       	rjmp	.+124    	; 0xc6 <__bad_interrupt>
  4a:	00 00       	nop
  4c:	3c c0       	rjmp	.+120    	; 0xc6 <__bad_interrupt>
  4e:	00 00       	nop
  50:	3a c0       	rjmp	.+116    	; 0xc6 <__bad_interrupt>
  52:	00 00       	nop
  54:	38 c0       	rjmp	.+112    	; 0xc6 <__bad_interrupt>
  56:	00 00       	nop
  58:	36 c0       	rjmp	.+108    	; 0xc6 <__bad_interrupt>
  5a:	00 00       	nop
  5c:	34 c0       	rjmp	.+104    	; 0xc6 <__bad_interrupt>
  5e:	00 00       	nop
  60:	32 c0       	rjmp	.+100    	; 0xc6 <__bad_interrupt>
  62:	00 00       	nop
  64:	30 c0       	rjmp	.+96     	; 0xc6 <__bad_interrupt>
  66:	00 00       	nop
  68:	2e c0       	rjmp	.+92     	; 0xc6 <__bad_interrupt>
  6a:	00 00       	nop
  6c:	2c c0       	rjmp	.+88     	; 0xc6 <__bad_interrupt>
  6e:	00 00       	nop
  70:	2a c0       	rjmp	.+84     	; 0xc6 <__bad_interrupt>
  72:	00 00       	nop
  74:	28 c0       	rjmp	.+80     	; 0xc6 <__bad_interrupt>
  76:	00 00       	nop
  78:	26 c0       	rjmp	.+76     	; 0xc6 <__bad_interrupt>
  7a:	00 00       	nop
  7c:	24 c0       	rjmp	.+72     	; 0xc6 <__bad_interrupt>
  7e:	00 00       	nop
  80:	22 c0       	rjmp	.+68     	; 0xc6 <__bad_interrupt>
  82:	00 00       	nop
  84:	20 c0       	rjmp	.+64     	; 0xc6 <__bad_interrupt>
  86:	00 00       	nop
  88:	1e c0       	rjmp	.+60     	; 0xc6 <__bad_interrupt>
	...

0000008c <__ctors_end>:
  8c:	11 24       	eor	r1, r1
  8e:	1f be       	out	0x3f, r1	; 63
  90:	cf ef       	ldi	r28, 0xFF	; 255
  92:	d0 e1       	ldi	r29, 0x10	; 16
  94:	de bf       	out	0x3e, r29	; 62
  96:	cd bf       	out	0x3d, r28	; 61

00000098 <__do_copy_data>:
  98:	11 e0       	ldi	r17, 0x01	; 1
  9a:	a0 e0       	ldi	r26, 0x00	; 0
  9c:	b1 e0       	ldi	r27, 0x01	; 1
  9e:	e6 e1       	ldi	r30, 0x16	; 22
  a0:	f2 e0       	ldi	r31, 0x02	; 2
  a2:	00 e0       	ldi	r16, 0x00	; 0
  a4:	0b bf       	out	0x3b, r16	; 59
  a6:	02 c0       	rjmp	.+4      	; 0xac <__do_copy_data+0x14>
  a8:	07 90       	elpm	r0, Z+
  aa:	0d 92       	st	X+, r0
  ac:	a0 31       	cpi	r26, 0x10	; 16
  ae:	b1 07       	cpc	r27, r17
  b0:	d9 f7       	brne	.-10     	; 0xa8 <__do_copy_data+0x10>

000000b2 <__do_clear_bss>:
  b2:	21 e0       	ldi	r18, 0x01	; 1
  b4:	a0 e1       	ldi	r26, 0x10	; 16
  b6:	b1 e0       	ldi	r27, 0x01	; 1
  b8:	01 c0       	rjmp	.+2      	; 0xbc <.do_clear_bss_start>

000000ba <.do_clear_bss_loop>:
  ba:	1d 92       	st	X+, r1

000000bc <.do_clear_bss_start>:
  bc:	a2 31       	cpi	r26, 0x12	; 18
  be:	b2 07       	cpc	r27, r18
  c0:	e1 f7       	brne	.-8      	; 0xba <.do_clear_bss_loop>
  c2:	99 d0       	rcall	.+306    	; 0x1f6 <main>
  c4:	a6 c0       	rjmp	.+332    	; 0x212 <_exit>

000000c6 <__bad_interrupt>:
  c6:	9c cf       	rjmp	.-200    	; 0x0 <__vectors>

000000c8 <wait>:
				clock value is set. This is used by _delay_ms inside
				until/delay.h
Version :    	DMK, Initial code
*******************************************************************/
{
	for (int i=0; i<ms; i++)
  c8:	18 16       	cp	r1, r24
  ca:	19 06       	cpc	r1, r25
  cc:	6c f4       	brge	.+26     	; 0xe8 <wait+0x20>
  ce:	20 e0       	ldi	r18, 0x00	; 0
  d0:	30 e0       	ldi	r19, 0x00	; 0
	#else
		//round up by default
		__ticks_dc = (uint32_t)(ceil(fabs(__tmp)));
	#endif

	__builtin_avr_delay_cycles(__ticks_dc);
  d2:	e9 ef       	ldi	r30, 0xF9	; 249
  d4:	f0 e0       	ldi	r31, 0x00	; 0
  d6:	31 97       	sbiw	r30, 0x01	; 1
  d8:	f1 f7       	brne	.-4      	; 0xd6 <wait+0xe>
  da:	00 c0       	rjmp	.+0      	; 0xdc <wait+0x14>
  dc:	00 00       	nop
  de:	2f 5f       	subi	r18, 0xFF	; 255
  e0:	3f 4f       	sbci	r19, 0xFF	; 255
  e2:	82 17       	cp	r24, r18
  e4:	93 07       	cpc	r25, r19
  e6:	a9 f7       	brne	.-22     	; 0xd2 <wait+0xa>
  e8:	08 95       	ret

000000ea <__vector_1>:
inputs:			
outputs:	
notes:			Set PORTD.5
Version :    	DMK, Initial code
*******************************************************************/
{
  ea:	1f 92       	push	r1
  ec:	0f 92       	push	r0
  ee:	0f b6       	in	r0, 0x3f	; 63
  f0:	0f 92       	push	r0
  f2:	11 24       	eor	r1, r1
  f4:	0b b6       	in	r0, 0x3b	; 59
  f6:	0f 92       	push	r0
  f8:	2f 93       	push	r18
  fa:	3f 93       	push	r19
  fc:	4f 93       	push	r20
  fe:	5f 93       	push	r21
 100:	6f 93       	push	r22
 102:	7f 93       	push	r23
 104:	8f 93       	push	r24
 106:	9f 93       	push	r25
 108:	af 93       	push	r26
 10a:	bf 93       	push	r27
 10c:	ef 93       	push	r30
 10e:	ff 93       	push	r31
	//if(x<=8){
		//PORTD |= (1<<x);
		//x++;
	//}	
	if(x==15){
 110:	80 91 10 01 	lds	r24, 0x0110	; 0x800110 <__data_end>
 114:	90 91 11 01 	lds	r25, 0x0111	; 0x800111 <__data_end+0x1>
 118:	0f 97       	sbiw	r24, 0x0f	; 15
 11a:	21 f4       	brne	.+8      	; 0x124 <__vector_1+0x3a>
		x=0;
 11c:	10 92 11 01 	sts	0x0111, r1	; 0x800111 <__data_end+0x1>
 120:	10 92 10 01 	sts	0x0110, r1	; 0x800110 <__data_end>
	}
	PORTC = Numbers[x];
 124:	e0 91 10 01 	lds	r30, 0x0110	; 0x800110 <__data_end>
 128:	f0 91 11 01 	lds	r31, 0x0111	; 0x800111 <__data_end+0x1>
 12c:	e0 50       	subi	r30, 0x00	; 0
 12e:	ff 4f       	sbci	r31, 0xFF	; 255
 130:	80 81       	ld	r24, Z
 132:	85 bb       	out	0x15, r24	; 21
	x++;
 134:	80 91 10 01 	lds	r24, 0x0110	; 0x800110 <__data_end>
 138:	90 91 11 01 	lds	r25, 0x0111	; 0x800111 <__data_end+0x1>
 13c:	01 96       	adiw	r24, 0x01	; 1
 13e:	90 93 11 01 	sts	0x0111, r25	; 0x800111 <__data_end+0x1>
 142:	80 93 10 01 	sts	0x0110, r24	; 0x800110 <__data_end>
		wait(1000);
 146:	88 ee       	ldi	r24, 0xE8	; 232
 148:	93 e0       	ldi	r25, 0x03	; 3
 14a:	be df       	rcall	.-132    	; 0xc8 <wait>
}
 14c:	ff 91       	pop	r31
 14e:	ef 91       	pop	r30
 150:	bf 91       	pop	r27
 152:	af 91       	pop	r26
 154:	9f 91       	pop	r25
 156:	8f 91       	pop	r24
 158:	7f 91       	pop	r23
 15a:	6f 91       	pop	r22
 15c:	5f 91       	pop	r21
 15e:	4f 91       	pop	r20
 160:	3f 91       	pop	r19
 162:	2f 91       	pop	r18
 164:	0f 90       	pop	r0
 166:	0b be       	out	0x3b, r0	; 59
 168:	0f 90       	pop	r0
 16a:	0f be       	out	0x3f, r0	; 63
 16c:	0f 90       	pop	r0
 16e:	1f 90       	pop	r1
 170:	18 95       	reti

00000172 <__vector_2>:
inputs:			
outputs:	
notes:			Clear PORTD.5
Version :    	DMK, Initial code
*******************************************************************/
{
 172:	1f 92       	push	r1
 174:	0f 92       	push	r0
 176:	0f b6       	in	r0, 0x3f	; 63
 178:	0f 92       	push	r0
 17a:	11 24       	eor	r1, r1
 17c:	0b b6       	in	r0, 0x3b	; 59
 17e:	0f 92       	push	r0
 180:	2f 93       	push	r18
 182:	3f 93       	push	r19
 184:	4f 93       	push	r20
 186:	5f 93       	push	r21
 188:	6f 93       	push	r22
 18a:	7f 93       	push	r23
 18c:	8f 93       	push	r24
 18e:	9f 93       	push	r25
 190:	af 93       	push	r26
 192:	bf 93       	push	r27
 194:	ef 93       	push	r30
 196:	ff 93       	push	r31
	//if(x>=4){
		//PORTD &= ~(1<<x);
		//x--;
	//}
	PORTC = Numbers[x];
 198:	e0 91 10 01 	lds	r30, 0x0110	; 0x800110 <__data_end>
 19c:	f0 91 11 01 	lds	r31, 0x0111	; 0x800111 <__data_end+0x1>
 1a0:	e0 50       	subi	r30, 0x00	; 0
 1a2:	ff 4f       	sbci	r31, 0xFF	; 255
 1a4:	80 81       	ld	r24, Z
 1a6:	85 bb       	out	0x15, r24	; 21
	x--;
 1a8:	80 91 10 01 	lds	r24, 0x0110	; 0x800110 <__data_end>
 1ac:	90 91 11 01 	lds	r25, 0x0111	; 0x800111 <__data_end+0x1>
 1b0:	01 97       	sbiw	r24, 0x01	; 1
	if(x==0){
 1b2:	29 f0       	breq	.+10     	; 0x1be <__vector_2+0x4c>
	//if(x>=4){
		//PORTD &= ~(1<<x);
		//x--;
	//}
	PORTC = Numbers[x];
	x--;
 1b4:	90 93 11 01 	sts	0x0111, r25	; 0x800111 <__data_end+0x1>
 1b8:	80 93 10 01 	sts	0x0110, r24	; 0x800110 <__data_end>
 1bc:	06 c0       	rjmp	.+12     	; 0x1ca <__vector_2+0x58>
	if(x==0){
		x=15;
 1be:	8f e0       	ldi	r24, 0x0F	; 15
 1c0:	90 e0       	ldi	r25, 0x00	; 0
 1c2:	90 93 11 01 	sts	0x0111, r25	; 0x800111 <__data_end+0x1>
 1c6:	80 93 10 01 	sts	0x0110, r24	; 0x800110 <__data_end>
	}
	wait(1000);
 1ca:	88 ee       	ldi	r24, 0xE8	; 232
 1cc:	93 e0       	ldi	r25, 0x03	; 3
 1ce:	7c df       	rcall	.-264    	; 0xc8 <wait>
				
}
 1d0:	ff 91       	pop	r31
 1d2:	ef 91       	pop	r30
 1d4:	bf 91       	pop	r27
 1d6:	af 91       	pop	r26
 1d8:	9f 91       	pop	r25
 1da:	8f 91       	pop	r24
 1dc:	7f 91       	pop	r23
 1de:	6f 91       	pop	r22
 1e0:	5f 91       	pop	r21
 1e2:	4f 91       	pop	r20
 1e4:	3f 91       	pop	r19
 1e6:	2f 91       	pop	r18
 1e8:	0f 90       	pop	r0
 1ea:	0b be       	out	0x3b, r0	; 59
 1ec:	0f 90       	pop	r0
 1ee:	0f be       	out	0x3f, r0	; 63
 1f0:	0f 90       	pop	r0
 1f2:	1f 90       	pop	r1
 1f4:	18 95       	reti

000001f6 <main>:
notes:			Slow background task after init ISR
Version :    	DMK, Initial code
*******************************************************************/
{
	// Init I/O
	DDRD = 0xF0;			// PORTD(7:4) output, PORTD(3:0) input	
 1f6:	80 ef       	ldi	r24, 0xF0	; 240
 1f8:	81 bb       	out	0x11, r24	; 17
	DDRC = 0xFF;
 1fa:	8f ef       	ldi	r24, 0xFF	; 255
 1fc:	84 bb       	out	0x14, r24	; 20

	// Init Interrupt hardware
	EICRA |= 0x0B;			// INT1 falling edge, INT0 rising edge
 1fe:	ea e6       	ldi	r30, 0x6A	; 106
 200:	f0 e0       	ldi	r31, 0x00	; 0
 202:	80 81       	ld	r24, Z
 204:	8b 60       	ori	r24, 0x0B	; 11
 206:	80 83       	st	Z, r24
	EIMSK |= 0x03;			// Enable INT1 & INT0
 208:	89 b7       	in	r24, 0x39	; 57
 20a:	83 60       	ori	r24, 0x03	; 3
 20c:	89 bf       	out	0x39, r24	; 57
	
	//opdracht4();
	
	// Enable global interrupt system
	//SREG = 0x80;			// Of direct via SREG of via wrapper
	sei();			
 20e:	78 94       	sei
 210:	ff cf       	rjmp	.-2      	; 0x210 <main+0x1a>

00000212 <_exit>:
 212:	f8 94       	cli

00000214 <__stop_program>:
 214:	ff cf       	rjmp	.-2      	; 0x214 <__stop_program>
